target datalayout = "e-m:e-p270:32:32-p271:32:32-p272:64:64-i64:64-i128:128-f80:128-n8:16:32:64-S128"
target triple = "x86_64-unknown-linux-gnu"

%"class.std::set.0" = type { %"class.std::_Rb_tree.1" }
%"class.std::_Rb_tree.1" = type { %"struct.std::_Rb_tree<QuantLib::Observer *, QuantLib::Observer *, std::_Identity<QuantLib::Observer *>, std::less<QuantLib::Observer *>>::_Rb_tree_impl" }
%"struct.std::_Rb_tree<QuantLib::Observer *, QuantLib::Observer *, std::_Identity<QuantLib::Observer *>, std::less<QuantLib::Observer *>>::_Rb_tree_impl" = type { [8 x i8], %"struct.std::_Rb_tree_header" }
%"struct.std::_Rb_tree_header" = type { %"struct.std::_Rb_tree_node_base", i64 }
%"struct.std::_Rb_tree_node_base" = type { i32, ptr, ptr, ptr }
%"class.std::set" = type { %"class.std::_Rb_tree" }
%"class.std::_Rb_tree" = type { %"struct.std::_Rb_tree<boost::shared_ptr<QuantLib::Observable>, boost::shared_ptr<QuantLib::Observable>, std::_Identity<boost::shared_ptr<QuantLib::Observable>>, std::less<boost::shared_ptr<QuantLib::Observable>>>::_Rb_tree_impl" }
%"struct.std::_Rb_tree<boost::shared_ptr<QuantLib::Observable>, boost::shared_ptr<QuantLib::Observable>, std::_Identity<boost::shared_ptr<QuantLib::Observable>>, std::less<boost::shared_ptr<QuantLib::Observable>>>::_Rb_tree_impl" = type { [8 x i8], %"struct.std::_Rb_tree_header" }
%"class.boost::detail::shared_count" = type { ptr }
%"class.QuantLib::Observable" = type { ptr, %"class.std::set.0" }
%"class.QuantLib::Handle" = type { %"class.boost::shared_ptr.28" }
%"class.boost::shared_ptr.28" = type { ptr, %"class.boost::detail::shared_count" }
%"class.QuantLib::Observer" = type { ptr, %"class.std::set" }
%"class.QuantLib::GenericModelEngine" = type { %"class.QuantLib::GenericEngine", %"class.QuantLib::Handle" }
%"class.QuantLib::GenericEngine" = type { %"class.QuantLib::PricingEngine", %"class.QuantLib::Observer", %"class.QuantLib::Option::arguments", %"class.QuantLib::OneAssetOption::results" }
%"class.QuantLib::PricingEngine" = type { %"class.QuantLib::Observable" }
%"class.QuantLib::Option::arguments" = type { %"class.QuantLib::PricingEngine::arguments", %"class.boost::shared_ptr.16", %"class.boost::shared_ptr.17" }
%"class.QuantLib::PricingEngine::arguments" = type { ptr }
%"class.boost::shared_ptr.16" = type { ptr, %"class.boost::detail::shared_count" }
%"class.boost::shared_ptr.17" = type { ptr, %"class.boost::detail::shared_count" }
%"class.QuantLib::OneAssetOption::results" = type { %"class.QuantLib::Instrument::results", %"class.QuantLib::Greeks", %"class.QuantLib::MoreGreeks" }
%"class.QuantLib::Instrument::results" = type { %"class.QuantLib::PricingEngine::results", double, double, %"class.QuantLib::Date", %"class.std::map" }
%"class.QuantLib::PricingEngine::results" = type { ptr }
%"class.QuantLib::Date" = type { i64 }
%"class.std::map" = type { %"class.std::_Rb_tree.10" }
%"class.std::_Rb_tree.10" = type { %"struct.std::_Rb_tree<std::__cxx11::basic_string<char>, std::pair<const std::__cxx11::basic_string<char>, boost::any>, std::_Select1st<std::pair<const std::__cxx11::basic_string<char>, boost::any>>, std::less<std::__cxx11::basic_string<char>>>::_Rb_tree_impl" }
%"struct.std::_Rb_tree<std::__cxx11::basic_string<char>, std::pair<const std::__cxx11::basic_string<char>, boost::any>, std::_Select1st<std::pair<const std::__cxx11::basic_string<char>, boost::any>>, std::less<std::__cxx11::basic_string<char>>>::_Rb_tree_impl" = type { [8 x i8], %"struct.std::_Rb_tree_header" }
%"class.QuantLib::Greeks" = type { %"class.QuantLib::PricingEngine::results", double, double, double, double, double, double }
%"class.QuantLib::MoreGreeks" = type { %"class.QuantLib::PricingEngine::results", double, double, double, double, double }
%"class.QuantLib::Null" = type { i8 }
%"class.QuantLib::AnalyticPTDHestonEngine" = type { %"class.QuantLib::GenericModelEngine", i64, i32, %"class.boost::shared_ptr.50", double }
%"class.boost::shared_ptr.50" = type { ptr, %"class.boost::detail::shared_count" }
%"class.QuantLib::AnalyticHestonEngine::Integration" = type { i32, %"class.boost::shared_ptr.51", %"class.boost::shared_ptr.52" }
%"class.boost::shared_ptr.51" = type { ptr, %"class.boost::detail::shared_count" }
%"class.boost::shared_ptr.52" = type { ptr, %"class.boost::detail::shared_count" }

; Function Attrs: mustprogress nounwind uwtable
define linkonce_odr noundef float @_ZNSt14numeric_limitsIfE3maxEv() #1 comdat align 2 {
entry:
  ret float 0x47EFFFFFE0000000
}

; Function Attrs: mustprogress nounwind uwtable
define linkonce_odr void @_ZN5boost6detail12shared_countC2Ev(ptr noundef nonnull align 8 dereferenceable(8) %this) unnamed_addr #1 comdat align 2 {
entry:
  %this.addr = alloca ptr, align 8
  store ptr %this, ptr %this.addr, align 8, !tbaa !3
  %this1 = load ptr, ptr %this.addr, align 8
  %pi_ = getelementptr inbounds nuw %"class.boost::detail::shared_count", ptr %this1, i32 0, i32 0
  store ptr null, ptr %pi_, align 8, !tbaa !157
  ret void
}

; Function Attrs: mustprogress nounwind uwtable
define linkonce_odr noundef float @_ZN8QuantLib6detail17FloatingPointNullILb1EE9nullValueEv() #1 comdat align 2 {
entry:
  %call = call noundef float @_ZNSt14numeric_limitsIfE3maxEv() #16
  ret float %call
}

; Function Attrs: inlinehint mustprogress nounwind uwtable
define linkonce_odr void @_ZN5boost10shared_ptrIN8QuantLib20AnalyticHestonEngine11IntegrationEED2Ev(ptr noundef nonnull align 8 dereferenceable(16) %this) unnamed_addr #5 comdat align 2 {
entry:
  %this.addr = alloca ptr, align 8
  store ptr %this, ptr %this.addr, align 8, !tbaa !3
  %this1 = load ptr, ptr %this.addr, align 8
  %pn = getelementptr inbounds nuw %"class.boost::shared_ptr.50", ptr %this1, i32 0, i32 1
  call void @_ZN5boost6detail12shared_countD2Ev(ptr noundef nonnull align 8 dereferenceable(8) %pn) #16
  ret void
}

; Function Attrs: mustprogress uwtable
define linkonce_odr void @_ZN5boost10shared_ptrIN8QuantLib20AnalyticHestonEngine11IntegrationEEC2IS3_EEPT_(ptr noundef nonnull align 8 dereferenceable(16) %this, ptr noundef %p) unnamed_addr #2 comdat align 2 personality ptr @__gxx_personality_v0 {
entry:
  %this.addr = alloca ptr, align 8
  %p.addr = alloca ptr, align 8
  %exn.slot = alloca ptr, align 8
  %ehselector.slot = alloca i32, align 4
  store ptr %this, ptr %this.addr, align 8, !tbaa !3
  store ptr %p, ptr %p.addr, align 8, !tbaa !3
  %this1 = load ptr, ptr %this.addr, align 8
  %px = getelementptr inbounds nuw %"class.boost::shared_ptr.50", ptr %this1, i32 0, i32 0
  %0 = load ptr, ptr %p.addr, align 8, !tbaa !3
  store ptr %0, ptr %px, align 8, !tbaa !89
  %pn = getelementptr inbounds nuw %"class.boost::shared_ptr.50", ptr %this1, i32 0, i32 1
  call void @_ZN5boost6detail12shared_countC2Ev(ptr noundef nonnull align 8 dereferenceable(8) %pn) #16
  %1 = load ptr, ptr %p.addr, align 8, !tbaa !3
  %pn2 = getelementptr inbounds nuw %"class.boost::shared_ptr.50", ptr %this1, i32 0, i32 1
  invoke void @_ZN5boost6detail20sp_pointer_constructIN8QuantLib20AnalyticHestonEngine11IntegrationES4_EEvPNS_10shared_ptrIT_EEPT0_RNS0_12shared_countE(ptr noundef %this1, ptr noundef %1, ptr noundef nonnull align 8 dereferenceable(8) %pn2)
          to label %invoke.cont unwind label %lpad

invoke.cont:                                      ; preds = %entry
  ret void

lpad:                                             ; preds = %entry
  %2 = landingpad { ptr, i32 }
          cleanup
  %3 = extractvalue { ptr, i32 } %2, 0
  store ptr %3, ptr %exn.slot, align 8
  %4 = extractvalue { ptr, i32 } %2, 1
  store i32 %4, ptr %ehselector.slot, align 4
  call void @_ZN5boost6detail12shared_countD2Ev(ptr noundef nonnull align 8 dereferenceable(8) %pn) #16
  br label %eh.resume

eh.resume:                                        ; preds = %lpad
  %exn = load ptr, ptr %exn.slot, align 8
  %sel = load i32, ptr %ehselector.slot, align 4
  %lpad.val = insertvalue { ptr, i32 } poison, ptr %exn, 0
  %lpad.val3 = insertvalue { ptr, i32 } %lpad.val, i32 %sel, 1
  resume { ptr, i32 } %lpad.val3
}

; Function Attrs: mustprogress uwtable
define linkonce_odr noundef double @_ZNK8QuantLib4NullIdEcvdEv(ptr noundef nonnull align 1 dereferenceable(1) %this) #2 comdat align 2 {
entry:
  %this.addr = alloca ptr, align 8
  store ptr %this, ptr %this.addr, align 8, !tbaa !3
  %call = call noundef float @_ZN8QuantLib6detail17FloatingPointNullILb1EE9nullValueEv()
  %conv = fpext float %call to double
  ret double %conv
}

; Function Attrs: mustprogress uwtable
define void @_ZN8QuantLib23AnalyticPTDHestonEngineC2ERKN5boost10shared_ptrINS_33PiecewiseTimeDependentHestonModelEEEdm(ptr noundef nonnull align 8 dereferenceable(392) %this, ptr noundef nonnull align 8 dereferenceable(16) %model, double noundef %relTolerance, i64 noundef %maxEvaluations) unnamed_addr #2 align 2 personality ptr @__gxx_personality_v0 {
entry:
  %this.addr = alloca ptr, align 8
  %model.addr = alloca ptr, align 8
  %relTolerance.addr = alloca double, align 8
  %maxEvaluations.addr = alloca i64, align 8
  %exn.slot = alloca ptr, align 8
  %ehselector.slot = alloca i32, align 4
  %ref.tmp = alloca %"class.QuantLib::Null", align 1
  %cleanup.isactive = alloca i1, align 1
  %ref.tmp7 = alloca %"class.QuantLib::Null", align 1
  store ptr %this, ptr %this.addr, align 8, !tbaa !3
  store ptr %model, ptr %model.addr, align 8, !tbaa !3
  store double %relTolerance, ptr %relTolerance.addr, align 8, !tbaa !14
  store i64 %maxEvaluations, ptr %maxEvaluations.addr, align 8, !tbaa !16
  %this1 = load ptr, ptr %this.addr, align 8
  %0 = load ptr, ptr %model.addr, align 8, !tbaa !3
  call void @_ZN8QuantLib18GenericModelEngineINS_33PiecewiseTimeDependentHestonModelENS_6Option9argumentsENS_14OneAssetOption7resultsEEC2ERKN5boost10shared_ptrIS1_EE(ptr noundef nonnull align 8 dereferenceable(352) %this1, ptr noundef nonnull align 8 dereferenceable(16) %0)
  store ptr getelementptr inbounds inrange(-16, 56) ({ [9 x ptr], [6 x ptr] }, ptr @_ZTVN8QuantLib23AnalyticPTDHestonEngineE, i32 0, i32 0, i32 2), ptr %this1, align 8, !tbaa !12
  %add.ptr = getelementptr inbounds i8, ptr %this1, i64 56
  store ptr getelementptr inbounds inrange(-16, 32) ({ [9 x ptr], [6 x ptr] }, ptr @_ZTVN8QuantLib23AnalyticPTDHestonEngineE, i32 0, i32 1, i32 2), ptr %add.ptr, align 8, !tbaa !12
  %evaluations_ = getelementptr inbounds nuw %"class.QuantLib::AnalyticPTDHestonEngine", ptr %this1, i32 0, i32 1
  store i64 0, ptr %evaluations_, align 8, !tbaa !52
  %cpxLog_ = getelementptr inbounds nuw %"class.QuantLib::AnalyticPTDHestonEngine", ptr %this1, i32 0, i32 2
  store i32 0, ptr %cpxLog_, align 8, !tbaa !87
  %integration_ = getelementptr inbounds nuw %"class.QuantLib::AnalyticPTDHestonEngine", ptr %this1, i32 0, i32 3
  %call = invoke noalias noundef nonnull ptr @_Znwm(i64 noundef 40) #25
          to label %invoke.cont unwind label %lpad

invoke.cont:                                      ; preds = %entry
  store i1 true, ptr %cleanup.isactive, align 1
  %1 = load double, ptr %relTolerance.addr, align 8, !tbaa !14
  call void @llvm.lifetime.start.p0(i64 1, ptr %ref.tmp) #16
  %call4 = invoke noundef double @_ZNK8QuantLib4NullIdEcvdEv(ptr noundef nonnull align 1 dereferenceable(1) %ref.tmp)
          to label %invoke.cont3 unwind label %lpad2

invoke.cont3:                                     ; preds = %invoke.cont
  %2 = load i64, ptr %maxEvaluations.addr, align 8, !tbaa !16
  invoke void @_ZN8QuantLib20AnalyticHestonEngine11Integration12gaussLobattoEddmb(ptr dead_on_unwind writable sret(%"class.QuantLib::AnalyticHestonEngine::Integration") align 8 %call, double noundef %1, double noundef %call4, i64 noundef %2, i1 noundef zeroext false)
          to label %invoke.cont5 unwind label %lpad2

invoke.cont5:                                     ; preds = %invoke.cont3
  store i1 false, ptr %cleanup.isactive, align 1
  invoke void @_ZN5boost10shared_ptrIN8QuantLib20AnalyticHestonEngine11IntegrationEEC2IS3_EEPT_(ptr noundef nonnull align 8 dereferenceable(16) %integration_, ptr noundef %call)
          to label %invoke.cont6 unwind label %lpad2

invoke.cont6:                                     ; preds = %invoke.cont5
  call void @llvm.lifetime.end.p0(i64 1, ptr %ref.tmp) #16
  %andersenPiterbargEpsilon_ = getelementptr inbounds nuw %"class.QuantLib::AnalyticPTDHestonEngine", ptr %this1, i32 0, i32 4
  call void @llvm.lifetime.start.p0(i64 1, ptr %ref.tmp7) #16
  %call10 = invoke noundef double @_ZNK8QuantLib4NullIdEcvdEv(ptr noundef nonnull align 1 dereferenceable(1) %ref.tmp7)
          to label %invoke.cont9 unwind label %lpad8

invoke.cont9:                                     ; preds = %invoke.cont6
  call void @llvm.lifetime.end.p0(i64 1, ptr %ref.tmp7) #16
  store double %call10, ptr %andersenPiterbargEpsilon_, align 8, !tbaa !88
  ret void

lpad:                                             ; preds = %entry
  %3 = landingpad { ptr, i32 }
          cleanup
  %4 = extractvalue { ptr, i32 } %3, 0
  store ptr %4, ptr %exn.slot, align 8
  %5 = extractvalue { ptr, i32 } %3, 1
  store i32 %5, ptr %ehselector.slot, align 4
  br label %ehcleanup

lpad2:                                            ; preds = %invoke.cont5, %invoke.cont3, %invoke.cont
  %6 = landingpad { ptr, i32 }
          cleanup
  %7 = extractvalue { ptr, i32 } %6, 0
  store ptr %7, ptr %exn.slot, align 8
  %8 = extractvalue { ptr, i32 } %6, 1
  store i32 %8, ptr %ehselector.slot, align 4
  call void @llvm.lifetime.end.p0(i64 1, ptr %ref.tmp) #16
  %cleanup.is_active = load i1, ptr %cleanup.isactive, align 1
  br i1 %cleanup.is_active, label %cleanup.action, label %cleanup.done

cleanup.action:                                   ; preds = %lpad2
  call void @_ZdlPvm(ptr noundef %call, i64 noundef 40) #26
  br label %cleanup.done

cleanup.done:                                     ; preds = %cleanup.action, %lpad2
  br label %ehcleanup

lpad8:                                            ; preds = %invoke.cont6
  %9 = landingpad { ptr, i32 }
          cleanup
  %10 = extractvalue { ptr, i32 } %9, 0
  store ptr %10, ptr %exn.slot, align 8
  %11 = extractvalue { ptr, i32 } %9, 1
  store i32 %11, ptr %ehselector.slot, align 4
  call void @llvm.lifetime.end.p0(i64 1, ptr %ref.tmp7) #16
  call void @_ZN5boost10shared_ptrIN8QuantLib20AnalyticHestonEngine11IntegrationEED2Ev(ptr noundef nonnull align 8 dereferenceable(16) %integration_) #16
  br label %ehcleanup

ehcleanup:                                        ; preds = %lpad8, %cleanup.done, %lpad
  call void @_ZN8QuantLib18GenericModelEngineINS_33PiecewiseTimeDependentHestonModelENS_6Option9argumentsENS_14OneAssetOption7resultsEED2Ev(ptr noundef nonnull align 8 dereferenceable(352) %this1) #16
  br label %eh.resume

eh.resume:                                        ; preds = %ehcleanup
  %exn = load ptr, ptr %exn.slot, align 8
  %sel = load i32, ptr %ehselector.slot, align 4
  %lpad.val = insertvalue { ptr, i32 } poison, ptr %exn, 0
  %lpad.val11 = insertvalue { ptr, i32 } %lpad.val, i32 %sel, 1
  resume { ptr, i32 } %lpad.val11
}